; Function Attrs: mustprogress uwtable
define void @_ZNK5faiss12IndexIVFFlat23reconstruct_from_offsetEllPf(ptr noundef nonnull readonly align 8 captures(none) dereferenceable(265) %0, i64 noundef %1, i64 noundef %2, ptr noundef writeonly captures(none) %3) unnamed_addr #3 align 2 {
  %5 = getelementptr inbounds nuw i8, ptr %0, i64 144
  %6 = load ptr, ptr %5, align 8, !tbaa !65
  %7 = load ptr, ptr %6, align 8, !tbaa !62
  %8 = getelementptr inbounds nuw i8, ptr %7, i64 64
  %9 = load ptr, ptr %8, align 8
  %10 = tail call noundef ptr %9(ptr noundef nonnull align 8 dereferenceable(25) %6, i64 noundef %1, i64 noundef %2)
  %11 = getelementptr inbounds nuw i8, ptr %0, i64 160
  %12 = load i64, ptr %11, align 8, !tbaa !4
  tail call void @llvm.memcpy.p0.p0.i64(ptr align 4 %3, ptr align 1 %10, i64 %12, i1 false)
  ret void
}